; Function Attrs: mustprogress nounwind uwtable
define dso_local noundef i64 @LLVMGetRelocationOffset(ptr nocapture noundef readonly %0) local_unnamed_addr #0 {
  %2 = getelementptr inbounds nuw i8, ptr %0, i64 8
  %3 = load ptr, ptr %2, align 8
  %.sroa.0.0.copyload.i = load i64, ptr %0, align 8
  %4 = load ptr, ptr %3, align 8
  %5 = getelementptr inbounds i8, ptr %4, i64 304
  %6 = load ptr, ptr %5, align 8
  %7 = tail call noundef i64 %6(ptr noundef nonnull align 8 dereferenceable(48) %3, i64 %.sroa.0.0.copyload.i) #17
  ret i64 %7
}